target datalayout = "e-m:e-p270:32:32-p271:32:32-p272:64:64-i64:64-i128:128-f80:128-n8:16:32:64-S128"
target triple = "x86_64-pc-linux-gnu"

%struct.SDL_Rect = type { i32, i32, i32, i32 }
%struct.SDL_Point = type { i32, i32 }

@.str = private unnamed_addr constant [26 x i8] c"Parameter '%s' is invalid\00", align 1
@.str.10 = private unnamed_addr constant [7 x i8] c"points\00", align 1
@.str.11 = private unnamed_addr constant [6 x i8] c"count\00", align 1

; Function Attrs: alwaysinline nounwind uwtable
define internal zeroext i1 @SDL_RectEmpty(ptr noundef %0) #3 {
  %2 = alloca ptr, align 8
  store ptr %0, ptr %2, align 8
  %3 = load ptr, ptr %2, align 8
  %4 = icmp ne ptr %3, null
  br i1 %4, label %5, label %15

5:                                                ; preds = %1
  %6 = load ptr, ptr %2, align 8
  %7 = getelementptr inbounds nuw %struct.SDL_Rect, ptr %6, i32 0, i32 2
  %8 = load i32, ptr %7, align 4
  %9 = icmp sle i32 %8, 0
  br i1 %9, label %15, label %10

10:                                               ; preds = %5
  %11 = load ptr, ptr %2, align 8
  %12 = getelementptr inbounds nuw %struct.SDL_Rect, ptr %11, i32 0, i32 3
  %13 = load i32, ptr %12, align 4
  %14 = icmp sle i32 %13, 0
  br label %15

15:                                               ; preds = %10, %5, %1
  %16 = phi i1 [ true, %5 ], [ true, %1 ], [ %14, %10 ]
  %17 = select i1 %16, i32 1, i32 0
  %18 = icmp ne i32 %17, 0
  ret i1 %18
}

; Function Attrs: nounwind uwtable
define hidden zeroext i1 @SDL_GetRectEnclosingPoints_REAL(ptr noundef %0, i32 noundef %1, ptr noundef %2, ptr noundef %3) #0 {
  %5 = alloca i1, align 1
  %6 = alloca ptr, align 8
  %7 = alloca i32, align 4
  %8 = alloca ptr, align 8
  %9 = alloca ptr, align 8
  %10 = alloca i32, align 4
  %11 = alloca i32, align 4
  %12 = alloca i32, align 4
  %13 = alloca i32, align 4
  %14 = alloca i32, align 4
  %15 = alloca i32, align 4
  %16 = alloca i32, align 4
  %17 = alloca i32, align 4
  %18 = alloca i8, align 1
  %19 = alloca i32, align 4
  %20 = alloca i32, align 4
  %21 = alloca i32, align 4
  %22 = alloca i32, align 4
  store ptr %0, ptr %6, align 8
  store i32 %1, ptr %7, align 4
  store ptr %2, ptr %8, align 8
  store ptr %3, ptr %9, align 8
  call void @llvm.lifetime.start.p0(i64 4, ptr %10) #6
  store i32 0, ptr %10, align 4
  call void @llvm.lifetime.start.p0(i64 4, ptr %11) #6
  store i32 0, ptr %11, align 4
  call void @llvm.lifetime.start.p0(i64 4, ptr %12) #6
  store i32 0, ptr %12, align 4
  call void @llvm.lifetime.start.p0(i64 4, ptr %13) #6
  store i32 0, ptr %13, align 4
  call void @llvm.lifetime.start.p0(i64 4, ptr %14) #6
  call void @llvm.lifetime.start.p0(i64 4, ptr %15) #6
  call void @llvm.lifetime.start.p0(i64 4, ptr %16) #6
  %23 = load ptr, ptr %6, align 8
  %24 = icmp ne ptr %23, null
  br i1 %24, label %27, label %25

25:                                               ; preds = %4
  %26 = call zeroext i1 (ptr, ...) @SDL_SetError_REAL(ptr noundef @.str, ptr noundef @.str.10)
  store i1 false, ptr %5, align 1
  store i32 1, ptr %17, align 4
  br label %227

27:                                               ; preds = %4
  %28 = load i32, ptr %7, align 4
  %29 = icmp slt i32 %28, 1
  br i1 %29, label %30, label %32

30:                                               ; preds = %27
  %31 = call zeroext i1 (ptr, ...) @SDL_SetError_REAL(ptr noundef @.str, ptr noundef @.str.11)
  store i1 false, ptr %5, align 1
  store i32 1, ptr %17, align 4
  br label %227

32:                                               ; preds = %27
  br label %33

33:                                               ; preds = %32
  %34 = load ptr, ptr %8, align 8
  %35 = icmp ne ptr %34, null
  br i1 %35, label %36, label %144

36:                                               ; preds = %33
  call void @llvm.lifetime.start.p0(i64 1, ptr %18) #6
  store i8 0, ptr %18, align 1
  call void @llvm.lifetime.start.p0(i64 4, ptr %19) #6
  %37 = load ptr, ptr %8, align 8
  %38 = getelementptr inbounds nuw %struct.SDL_Rect, ptr %37, i32 0, i32 0
  %39 = load i32, ptr %38, align 4
  store i32 %39, ptr %19, align 4
  call void @llvm.lifetime.start.p0(i64 4, ptr %20) #6
  %40 = load ptr, ptr %8, align 8
  %41 = getelementptr inbounds nuw %struct.SDL_Rect, ptr %40, i32 0, i32 1
  %42 = load i32, ptr %41, align 4
  store i32 %42, ptr %20, align 4
  call void @llvm.lifetime.start.p0(i64 4, ptr %21) #6
  %43 = load ptr, ptr %8, align 8
  %44 = getelementptr inbounds nuw %struct.SDL_Rect, ptr %43, i32 0, i32 0
  %45 = load i32, ptr %44, align 4
  %46 = load ptr, ptr %8, align 8
  %47 = getelementptr inbounds nuw %struct.SDL_Rect, ptr %46, i32 0, i32 2
  %48 = load i32, ptr %47, align 4
  %49 = add nsw i32 %45, %48
  %50 = sub nsw i32 %49, 1
  store i32 %50, ptr %21, align 4
  call void @llvm.lifetime.start.p0(i64 4, ptr %22) #6
  %51 = load ptr, ptr %8, align 8
  %52 = getelementptr inbounds nuw %struct.SDL_Rect, ptr %51, i32 0, i32 1
  %53 = load i32, ptr %52, align 4
  %54 = load ptr, ptr %8, align 8
  %55 = getelementptr inbounds nuw %struct.SDL_Rect, ptr %54, i32 0, i32 3
  %56 = load i32, ptr %55, align 4
  %57 = add nsw i32 %53, %56
  %58 = sub nsw i32 %57, 1
  store i32 %58, ptr %22, align 4
  %59 = load ptr, ptr %8, align 8
  %60 = call zeroext i1 @SDL_RectEmpty(ptr noundef %59)
  br i1 %60, label %61, label %62

61:                                               ; preds = %36
  store i1 false, ptr %5, align 1
  store i32 1, ptr %17, align 4
  br label %141

62:                                               ; preds = %36
  store i32 0, ptr %16, align 4
  br label %63

63:                                               ; preds = %133, %62
  %64 = load i32, ptr %16, align 4
  %65 = load i32, ptr %7, align 4
  %66 = icmp slt i32 %64, %65
  br i1 %66, label %67, label %136

67:                                               ; preds = %63
  %68 = load ptr, ptr %6, align 8
  %69 = load i32, ptr %16, align 4
  %70 = sext i32 %69 to i64
  %71 = getelementptr inbounds %struct.SDL_Point, ptr %68, i64 %70
  %72 = getelementptr inbounds nuw %struct.SDL_Point, ptr %71, i32 0, i32 0
  %73 = load i32, ptr %72, align 4
  store i32 %73, ptr %14, align 4
  %74 = load ptr, ptr %6, align 8
  %75 = load i32, ptr %16, align 4
  %76 = sext i32 %75 to i64
  %77 = getelementptr inbounds %struct.SDL_Point, ptr %74, i64 %76
  %78 = getelementptr inbounds nuw %struct.SDL_Point, ptr %77, i32 0, i32 1
  %79 = load i32, ptr %78, align 4
  store i32 %79, ptr %15, align 4
  %80 = load i32, ptr %14, align 4
  %81 = load i32, ptr %19, align 4
  %82 = icmp slt i32 %80, %81
  br i1 %82, label %95, label %83

83:                                               ; preds = %67
  %84 = load i32, ptr %14, align 4
  %85 = load i32, ptr %21, align 4
  %86 = icmp sgt i32 %84, %85
  br i1 %86, label %95, label %87

87:                                               ; preds = %83
  %88 = load i32, ptr %15, align 4
  %89 = load i32, ptr %20, align 4
  %90 = icmp slt i32 %88, %89
  br i1 %90, label %95, label %91

91:                                               ; preds = %87
  %92 = load i32, ptr %15, align 4
  %93 = load i32, ptr %22, align 4
  %94 = icmp sgt i32 %92, %93
  br i1 %94, label %95, label %96

95:                                               ; preds = %91, %87, %83, %67
  br label %133

96:                                               ; preds = %91
  %97 = load i8, ptr %18, align 1, !range !5, !noundef !6
  %98 = trunc i8 %97 to i1
  br i1 %98, label %106, label %99

99:                                               ; preds = %96
  %100 = load ptr, ptr %9, align 8
  %101 = icmp ne ptr %100, null
  br i1 %101, label %103, label %102

102:                                              ; preds = %99
  store i1 true, ptr %5, align 1
  store i32 1, ptr %17, align 4
  br label %141

103:                                              ; preds = %99
  %104 = load i32, ptr %14, align 4
  store i32 %104, ptr %12, align 4
  store i32 %104, ptr %10, align 4
  %105 = load i32, ptr %15, align 4
  store i32 %105, ptr %13, align 4
  store i32 %105, ptr %11, align 4
  store i8 1, ptr %18, align 1
  br label %133

106:                                              ; preds = %96
  %107 = load i32, ptr %14, align 4
  %108 = load i32, ptr %10, align 4
  %109 = icmp slt i32 %107, %108
  br i1 %109, label %110, label %112

110:                                              ; preds = %106
  %111 = load i32, ptr %14, align 4
  store i32 %111, ptr %10, align 4
  br label %119

112:                                              ; preds = %106
  %113 = load i32, ptr %14, align 4
  %114 = load i32, ptr %12, align 4
  %115 = icmp sgt i32 %113, %114
  br i1 %115, label %116, label %118

116:                                              ; preds = %112
  %117 = load i32, ptr %14, align 4
  store i32 %117, ptr %12, align 4
  br label %118

118:                                              ; preds = %116, %112
  br label %119

119:                                              ; preds = %118, %110
  %120 = load i32, ptr %15, align 4
  %121 = load i32, ptr %11, align 4
  %122 = icmp slt i32 %120, %121
  br i1 %122, label %123, label %125

123:                                              ; preds = %119
  %124 = load i32, ptr %15, align 4
  store i32 %124, ptr %11, align 4
  br label %132

125:                                              ; preds = %119
  %126 = load i32, ptr %15, align 4
  %127 = load i32, ptr %13, align 4
  %128 = icmp sgt i32 %126, %127
  br i1 %128, label %129, label %131

129:                                              ; preds = %125
  %130 = load i32, ptr %15, align 4
  store i32 %130, ptr %13, align 4
  br label %131

131:                                              ; preds = %129, %125
  br label %132

132:                                              ; preds = %131, %123
  br label %133

133:                                              ; preds = %132, %103, %95
  %134 = load i32, ptr %16, align 4
  %135 = add nsw i32 %134, 1
  store i32 %135, ptr %16, align 4
  br label %63, !llvm.loop !7

136:                                              ; preds = %63
  %137 = load i8, ptr %18, align 1, !range !5, !noundef !6
  %138 = trunc i8 %137 to i1
  br i1 %138, label %140, label %139

139:                                              ; preds = %136
  store i1 false, ptr %5, align 1
  store i32 1, ptr %17, align 4
  br label %141

140:                                              ; preds = %136
  store i32 0, ptr %17, align 4
  br label %141

141:                                              ; preds = %140, %139, %102, %61
  call void @llvm.lifetime.end.p0(i64 4, ptr %22) #6
  call void @llvm.lifetime.end.p0(i64 4, ptr %21) #6
  call void @llvm.lifetime.end.p0(i64 4, ptr %20) #6
  call void @llvm.lifetime.end.p0(i64 4, ptr %19) #6
  call void @llvm.lifetime.end.p0(i64 1, ptr %18) #6
  %142 = load i32, ptr %17, align 4
  switch i32 %142, label %227 [
    i32 0, label %143
  ]

143:                                              ; preds = %141
  br label %204

144:                                              ; preds = %33
  %145 = load ptr, ptr %9, align 8
  %146 = icmp ne ptr %145, null
  br i1 %146, label %148, label %147

147:                                              ; preds = %144
  store i1 true, ptr %5, align 1
  store i32 1, ptr %17, align 4
  br label %227

148:                                              ; preds = %144
  %149 = load ptr, ptr %6, align 8
  %150 = getelementptr inbounds %struct.SDL_Point, ptr %149, i64 0
  %151 = getelementptr inbounds nuw %struct.SDL_Point, ptr %150, i32 0, i32 0
  %152 = load i32, ptr %151, align 4
  store i32 %152, ptr %12, align 4
  store i32 %152, ptr %10, align 4
  %153 = load ptr, ptr %6, align 8
  %154 = getelementptr inbounds %struct.SDL_Point, ptr %153, i64 0
  %155 = getelementptr inbounds nuw %struct.SDL_Point, ptr %154, i32 0, i32 1
  %156 = load i32, ptr %155, align 4
  store i32 %156, ptr %13, align 4
  store i32 %156, ptr %11, align 4
  store i32 1, ptr %16, align 4
  br label %157

157:                                              ; preds = %200, %148
  %158 = load i32, ptr %16, align 4
  %159 = load i32, ptr %7, align 4
  %160 = icmp slt i32 %158, %159
  br i1 %160, label %161, label %203

161:                                              ; preds = %157
  %162 = load ptr, ptr %6, align 8
  %163 = load i32, ptr %16, align 4
  %164 = sext i32 %163 to i64
  %165 = getelementptr inbounds %struct.SDL_Point, ptr %162, i64 %164
  %166 = getelementptr inbounds nuw %struct.SDL_Point, ptr %165, i32 0, i32 0
  %167 = load i32, ptr %166, align 4
  store i32 %167, ptr %14, align 4
  %168 = load ptr, ptr %6, align 8
  %169 = load i32, ptr %16, align 4
  %170 = sext i32 %169 to i64
  %171 = getelementptr inbounds %struct.SDL_Point, ptr %168, i64 %170
  %172 = getelementptr inbounds nuw %struct.SDL_Point, ptr %171, i32 0, i32 1
  %173 = load i32, ptr %172, align 4
  store i32 %173, ptr %15, align 4
  %174 = load i32, ptr %14, align 4
  %175 = load i32, ptr %10, align 4
  %176 = icmp slt i32 %174, %175
  br i1 %176, label %177, label %179

177:                                              ; preds = %161
  %178 = load i32, ptr %14, align 4
  store i32 %178, ptr %10, align 4
  br label %186

179:                                              ; preds = %161
  %180 = load i32, ptr %14, align 4
  %181 = load i32, ptr %12, align 4
  %182 = icmp sgt i32 %180, %181
  br i1 %182, label %183, label %185

183:                                              ; preds = %179
  %184 = load i32, ptr %14, align 4
  store i32 %184, ptr %12, align 4
  br label %185

185:                                              ; preds = %183, %179
  br label %186

186:                                              ; preds = %185, %177
  %187 = load i32, ptr %15, align 4
  %188 = load i32, ptr %11, align 4
  %189 = icmp slt i32 %187, %188
  br i1 %189, label %190, label %192

190:                                              ; preds = %186
  %191 = load i32, ptr %15, align 4
  store i32 %191, ptr %11, align 4
  br label %199

192:                                              ; preds = %186
  %193 = load i32, ptr %15, align 4
  %194 = load i32, ptr %13, align 4
  %195 = icmp sgt i32 %193, %194
  br i1 %195, label %196, label %198

196:                                              ; preds = %192
  %197 = load i32, ptr %15, align 4
  store i32 %197, ptr %13, align 4
  br label %198

198:                                              ; preds = %196, %192
  br label %199

199:                                              ; preds = %198, %190
  br label %200

200:                                              ; preds = %199
  %201 = load i32, ptr %16, align 4
  %202 = add nsw i32 %201, 1
  store i32 %202, ptr %16, align 4
  br label %157, !llvm.loop !8

203:                                              ; preds = %157
  br label %204

204:                                              ; preds = %203, %143
  %205 = load ptr, ptr %9, align 8
  %206 = icmp ne ptr %205, null
  br i1 %206, label %207, label %226

207:                                              ; preds = %204
  %208 = load i32, ptr %10, align 4
  %209 = load ptr, ptr %9, align 8
  %210 = getelementptr inbounds nuw %struct.SDL_Rect, ptr %209, i32 0, i32 0
  store i32 %208, ptr %210, align 4
  %211 = load i32, ptr %11, align 4
  %212 = load ptr, ptr %9, align 8
  %213 = getelementptr inbounds nuw %struct.SDL_Rect, ptr %212, i32 0, i32 1
  store i32 %211, ptr %213, align 4
  %214 = load i32, ptr %12, align 4
  %215 = load i32, ptr %10, align 4
  %216 = sub nsw i32 %214, %215
  %217 = add nsw i32 %216, 1
  %218 = load ptr, ptr %9, align 8
  %219 = getelementptr inbounds nuw %struct.SDL_Rect, ptr %218, i32 0, i32 2
  store i32 %217, ptr %219, align 4
  %220 = load i32, ptr %13, align 4
  %221 = load i32, ptr %11, align 4
  %222 = sub nsw i32 %220, %221
  %223 = add nsw i32 %222, 1
  %224 = load ptr, ptr %9, align 8
  %225 = getelementptr inbounds nuw %struct.SDL_Rect, ptr %224, i32 0, i32 3
  store i32 %223, ptr %225, align 4
  br label %226

226:                                              ; preds = %207, %204
  store i1 true, ptr %5, align 1
  store i32 1, ptr %17, align 4
  br label %227

227:                                              ; preds = %226, %147, %141, %30, %25
  call void @llvm.lifetime.end.p0(i64 4, ptr %16) #6
  call void @llvm.lifetime.end.p0(i64 4, ptr %15) #6
  call void @llvm.lifetime.end.p0(i64 4, ptr %14) #6
  call void @llvm.lifetime.end.p0(i64 4, ptr %13) #6
  call void @llvm.lifetime.end.p0(i64 4, ptr %12) #6
  call void @llvm.lifetime.end.p0(i64 4, ptr %11) #6
  call void @llvm.lifetime.end.p0(i64 4, ptr %10) #6
  %228 = load i1, ptr %5, align 1
  ret i1 %228
}