; Function Attrs: nounwind uwtable
define hidden zeroext i1 @SDL_GetRectEnclosingPoints_REAL(ptr noundef readonly captures(address_is_null) %0, i32 noundef %1, ptr noundef readonly captures(address_is_null) %2, ptr noundef writeonly captures(address_is_null) %3) local_unnamed_addr #0 {
  %.not = icmp eq ptr %0, null
  br i1 %.not, label %5, label %7

5:                                                ; preds = %4
  %6 = tail call zeroext i1 (ptr, ...) @SDL_SetError_REAL(ptr noundef nonnull @.str, ptr noundef nonnull @.str.10) #5
  br label %.thread

7:                                                ; preds = %4
  %8 = icmp slt i32 %1, 1
  br i1 %8, label %9, label %11

9:                                                ; preds = %7
  %10 = tail call zeroext i1 (ptr, ...) @SDL_SetError_REAL(ptr noundef nonnull @.str, ptr noundef nonnull @.str.11) #5
  br label %.thread

11:                                               ; preds = %7
  %.not112 = icmp eq ptr %2, null
  br i1 %.not112, label %44, label %12

12:                                               ; preds = %11
  %13 = load i32, ptr %2, align 4
  %14 = getelementptr inbounds nuw i8, ptr %2, i64 4
  %15 = load i32, ptr %14, align 4
  %16 = getelementptr inbounds nuw i8, ptr %2, i64 8
  %17 = load i32, ptr %16, align 4
  %18 = add nsw i32 %17, %13
  %19 = getelementptr inbounds nuw i8, ptr %2, i64 12
  %20 = load i32, ptr %19, align 4
  %21 = add nsw i32 %20, %15
  %22 = icmp slt i32 %17, 1
  %23 = icmp slt i32 %20, 1
  %or.cond130 = select i1 %22, i1 true, i1 %23
  br i1 %or.cond130, label %.thread, label %.lr.ph

.lr.ph:                                           ; preds = %12
  %.not116 = icmp eq ptr %3, null
  %wide.trip.count171 = zext nneg i32 %1 to i64
  br i1 %.not116, label %.lr.ph.split.us, label %.lr.ph.split

.lr.ph.split.us:                                  ; preds = %.lr.ph, %.lr.ph.split.us
  %indvars.iv169 = phi i64 [ %indvars.iv.next170, %.lr.ph.split.us ], [ 0, %.lr.ph ]
  %24 = getelementptr inbounds nuw %struct.SDL_Point, ptr %0, i64 %indvars.iv169
  %25 = load i32, ptr %24, align 4
  %26 = getelementptr inbounds nuw i8, ptr %24, i64 4
  %27 = load i32, ptr %26, align 4
  %28 = icmp sge i32 %25, %13
  %.not114.us = icmp slt i32 %25, %18
  %or.cond.not132.not136.us = select i1 %28, i1 %.not114.us, i1 false
  %29 = icmp sge i32 %27, %15
  %or.cond118.not134.us = select i1 %or.cond.not132.not136.us, i1 %29, i1 false
  %.not115.us = icmp slt i32 %27, %21
  %or.cond119.us = select i1 %or.cond118.not134.us, i1 %.not115.us, i1 false
  %indvars.iv.next170 = add nuw nsw i64 %indvars.iv169, 1
  %exitcond172.not = icmp eq i64 %indvars.iv.next170, %wide.trip.count171
  %or.cond = select i1 %or.cond119.us, i1 true, i1 %exitcond172.not
  br i1 %or.cond, label %.thread, label %.lr.ph.split.us, !llvm.loop !5

.lr.ph.split:                                     ; preds = %.lr.ph, %42
  %indvars.iv = phi i64 [ %indvars.iv.next, %42 ], [ 0, %.lr.ph ]
  %.177147 = phi i32 [ %.2, %42 ], [ 0, %.lr.ph ]
  %.179146 = phi i32 [ %.280, %42 ], [ 0, %.lr.ph ]
  %.185145 = phi i32 [ %.286, %42 ], [ 0, %.lr.ph ]
  %.091144 = phi i8 [ %.192, %42 ], [ 0, %.lr.ph ]
  %.197142 = phi i32 [ %.298, %42 ], [ 0, %.lr.ph ]
  %30 = getelementptr inbounds nuw %struct.SDL_Point, ptr %0, i64 %indvars.iv
  %31 = load i32, ptr %30, align 4
  %32 = getelementptr inbounds nuw i8, ptr %30, i64 4
  %33 = load i32, ptr %32, align 4
  %34 = icmp sge i32 %31, %13
  %.not114 = icmp slt i32 %31, %18
  %or.cond.not132.not136 = select i1 %34, i1 %.not114, i1 false
  %35 = icmp sge i32 %33, %15
  %or.cond118.not134 = select i1 %or.cond.not132.not136, i1 %35, i1 false
  %.not115 = icmp slt i32 %33, %21
  %or.cond119 = select i1 %or.cond118.not134, i1 %.not115, i1 false
  br i1 %or.cond119, label %36, label %42

36:                                               ; preds = %.lr.ph.split
  %37 = trunc nuw i8 %.091144 to i1
  br i1 %37, label %38, label %42

38:                                               ; preds = %36
  %39 = icmp slt i32 %31, %.177147
  %spec.select = tail call i32 @llvm.smax.i32(i32 %31, i32 %.185145)
  %.387 = select i1 %39, i32 %.185145, i32 %spec.select
  %.3 = tail call i32 @llvm.smin.i32(i32 %31, i32 %.177147)
  %40 = icmp slt i32 %33, %.179146
  br i1 %40, label %42, label %41

41:                                               ; preds = %38
  %spec.select120 = tail call i32 @llvm.smax.i32(i32 %33, i32 %.197142)
  br label %42

42:                                               ; preds = %36, %41, %38, %.lr.ph.split
  %.298 = phi i32 [ %.197142, %.lr.ph.split ], [ %.197142, %38 ], [ %spec.select120, %41 ], [ %33, %36 ]
  %.192 = phi i8 [ %.091144, %.lr.ph.split ], [ 1, %38 ], [ 1, %41 ], [ 1, %36 ]
  %.286 = phi i32 [ %.185145, %.lr.ph.split ], [ %.387, %38 ], [ %.387, %41 ], [ %31, %36 ]
  %.280 = phi i32 [ %.179146, %.lr.ph.split ], [ %33, %38 ], [ %.179146, %41 ], [ %33, %36 ]
  %.2 = phi i32 [ %.177147, %.lr.ph.split ], [ %.3, %38 ], [ %.3, %41 ], [ %31, %36 ]
  %indvars.iv.next = add nuw nsw i64 %indvars.iv, 1
  %exitcond.not = icmp eq i64 %indvars.iv.next, %wide.trip.count171
  br i1 %exitcond.not, label %._crit_edge, label %.lr.ph.split, !llvm.loop !5

._crit_edge:                                      ; preds = %42
  %43 = trunc nuw i8 %.192 to i1
  br i1 %43, label %.loopexit.thread, label %.thread

44:                                               ; preds = %11
  %.not113 = icmp eq ptr %3, null
  br i1 %.not113, label %.thread, label %45

45:                                               ; preds = %44
  %46 = load i32, ptr %0, align 4
  %47 = getelementptr inbounds nuw i8, ptr %0, i64 4
  %48 = load i32, ptr %47, align 4
  %.not167 = icmp eq i32 %1, 1
  br i1 %.not167, label %.loopexit.thread, label %.lr.ph162.preheader

.lr.ph162.preheader:                              ; preds = %45
  %wide.trip.count176 = zext nneg i32 %1 to i64
  br label %.lr.ph162

.lr.ph162:                                        ; preds = %.lr.ph162.preheader, %.lr.ph162
  %indvars.iv173 = phi i64 [ 1, %.lr.ph162.preheader ], [ %indvars.iv.next174, %.lr.ph162 ]
  %.5160 = phi i32 [ %46, %.lr.ph162.preheader ], [ %.6, %.lr.ph162 ]
  %.482159 = phi i32 [ %48, %.lr.ph162.preheader ], [ %.583, %.lr.ph162 ]
  %.589158 = phi i32 [ %46, %.lr.ph162.preheader ], [ %.690, %.lr.ph162 ]
  %.4100156 = phi i32 [ %48, %.lr.ph162.preheader ], [ %.5101, %.lr.ph162 ]
  %49 = getelementptr inbounds nuw %struct.SDL_Point, ptr %0, i64 %indvars.iv173
  %50 = load i32, ptr %49, align 4
  %51 = getelementptr inbounds nuw i8, ptr %49, i64 4
  %52 = load i32, ptr %51, align 4
  %53 = icmp slt i32 %50, %.5160
  %spec.select122 = tail call i32 @llvm.smax.i32(i32 %50, i32 %.589158)
  %.690 = select i1 %53, i32 %.589158, i32 %spec.select122
  %.6 = tail call i32 @llvm.smin.i32(i32 %50, i32 %.5160)
  %54 = icmp slt i32 %52, %.482159
  %spec.select123 = tail call i32 @llvm.smax.i32(i32 %52, i32 %.4100156)
  %.5101 = select i1 %54, i32 %.4100156, i32 %spec.select123
  %.583 = tail call i32 @llvm.smin.i32(i32 %52, i32 %.482159)
  %indvars.iv.next174 = add nuw nsw i64 %indvars.iv173, 1
  %exitcond177.not = icmp eq i64 %indvars.iv.next174, %wide.trip.count176
  br i1 %exitcond177.not, label %.loopexit.thread, label %.lr.ph162, !llvm.loop !6

.loopexit.thread:                                 ; preds = %.lr.ph162, %._crit_edge, %45
  %.4191 = phi i32 [ %46, %45 ], [ %.2, %._crit_edge ], [ %.6, %.lr.ph162 ]
  %.381190 = phi i32 [ %48, %45 ], [ %.280, %._crit_edge ], [ %.583, %.lr.ph162 ]
  %.488189 = phi i32 [ %46, %45 ], [ %.286, %._crit_edge ], [ %.690, %.lr.ph162 ]
  %.399188 = phi i32 [ %48, %45 ], [ %.298, %._crit_edge ], [ %.5101, %.lr.ph162 ]
  store i32 %.4191, ptr %3, align 4
  %55 = getelementptr inbounds nuw i8, ptr %3, i64 4
  store i32 %.381190, ptr %55, align 4
  %56 = add i32 %.488189, 1
  %57 = sub i32 %56, %.4191
  %58 = getelementptr inbounds nuw i8, ptr %3, i64 8
  store i32 %57, ptr %58, align 4
  %59 = add i32 %.399188, 1
  %60 = sub i32 %59, %.381190
  %61 = getelementptr inbounds nuw i8, ptr %3, i64 12
  store i32 %60, ptr %61, align 4
  br label %.thread

.thread:                                          ; preds = %.lr.ph.split.us, %12, %.loopexit.thread, %44, %._crit_edge, %9, %5
  %.0 = phi i1 [ false, %9 ], [ false, %._crit_edge ], [ false, %5 ], [ true, %44 ], [ true, %.loopexit.thread ], [ false, %12 ], [ %or.cond119.us, %.lr.ph.split.us ]
  ret i1 %.0
}